; Function Attrs: nounwind uwtable
define internal ptr @dictitems_iter(ptr noundef readonly captures(none) %0) #0 {
  %2 = getelementptr inbounds nuw i8, ptr %0, i64 16
  %3 = load ptr, ptr %2, align 8, !tbaa !203
  %4 = icmp eq ptr %3, null
  br i1 %4, label %7, label %5

5:                                                ; preds = %1
  %6 = tail call fastcc ptr @dictiter_new(ptr noundef nonnull %3, ptr noundef nonnull @PyDictIterItem_Type)
  br label %7

7:                                                ; preds = %1, %5
  %.0 = phi ptr [ %6, %5 ], [ @_Py_NoneStruct, %1 ]
  ret ptr %.0
}